; Function Attrs: nounwind uwtable
define ptr @l_Array_foldlMUnsafe_fold___at_Lean_Elab_Tactic_BVDecide_Frontend_Normalize_CoefficientsMap_toExpr___spec__5(ptr noundef readonly captures(none) %0, i64 noundef %1, i64 noundef %2, ptr noundef %3) local_unnamed_addr #0 {
  %.not27 = icmp eq i64 %1, %2
  br i1 %.not27, label %._crit_edge, label %.lr.ph

.lr.ph:                                           ; preds = %4
  %5 = getelementptr inbounds nuw i8, ptr %0, i64 24
  br label %6

6:                                                ; preds = %.lr.ph, %26
  %.01529 = phi i64 [ %1, %.lr.ph ], [ %28, %26 ]
  %.01728 = phi ptr [ %3, %.lr.ph ], [ %27, %26 ]
  %7 = getelementptr inbounds nuw [0 x ptr], ptr %5, i64 0, i64 %.01529
  %8 = load ptr, ptr %7, align 8, !tbaa !4
  %9 = ptrtoint ptr %8 to i64
  %10 = and i64 %9, 1
  %.not.i19 = icmp eq i64 %10, 0
  br i1 %.not.i19, label %11, label %lean_array_uget.exit

11:                                               ; preds = %6
  %.val.i.i = load i32, ptr %8, align 4, !tbaa !8
  %12 = icmp sgt i32 %.val.i.i, 0
  br i1 %12, label %13, label %15, !prof !11

13:                                               ; preds = %11
  %14 = add nuw i32 %.val.i.i, 1
  store i32 %14, ptr %8, align 4, !tbaa !8
  br label %18

15:                                               ; preds = %11
  %.not.i.i = icmp eq i32 %.val.i.i, 0
  br i1 %.not.i.i, label %18, label %16

16:                                               ; preds = %15
  tail call void @lean_inc_ref_cold(ptr noundef nonnull %8) #5
  br label %18

lean_array_uget.exit:                             ; preds = %6
  %17 = tail call ptr @l_Std_DHashMap_Internal_AssocList_foldlM___at_Lean_Elab_Tactic_BVDecide_Frontend_Normalize_CoefficientsMap_toExpr___spec__1(ptr noundef %.01728, ptr noundef %8)
  br label %26

18:                                               ; preds = %13, %15, %16
  %19 = tail call ptr @l_Std_DHashMap_Internal_AssocList_foldlM___at_Lean_Elab_Tactic_BVDecide_Frontend_Normalize_CoefficientsMap_toExpr___spec__1(ptr noundef %.01728, ptr noundef nonnull %8)
  %20 = load i32, ptr %8, align 4, !tbaa !8
  %21 = icmp sgt i32 %20, 1
  br i1 %21, label %22, label %24, !prof !11

22:                                               ; preds = %18
  %23 = add nsw i32 %20, -1
  store i32 %23, ptr %8, align 4, !tbaa !8
  br label %26

24:                                               ; preds = %18
  %.not.i = icmp eq i32 %20, 0
  br i1 %.not.i, label %26, label %25

25:                                               ; preds = %24
  tail call void @lean_dec_ref_cold(ptr noundef nonnull %8) #5
  br label %26

26:                                               ; preds = %lean_array_uget.exit, %22, %24, %25
  %27 = phi ptr [ %17, %lean_array_uget.exit ], [ %19, %22 ], [ %19, %24 ], [ %19, %25 ]
  %28 = add i64 %.01529, 1
  %.not = icmp eq i64 %28, %2
  br i1 %.not, label %._crit_edge, label %6

._crit_edge:                                      ; preds = %26, %4
  %.017.lcssa = phi ptr [ %3, %4 ], [ %27, %26 ]
  ret ptr %.017.lcssa
}